target datalayout = "e-m:e-p270:32:32-p271:32:32-p272:64:64-i64:64-i128:128-f80:128-n8:16:32:64-S128"
target triple = "x86_64-pc-linux-gnu"

%struct.H264Picture = type { ptr, %struct.ThreadFrame, ptr, ptr, ptr, [2 x ptr], [2 x ptr], ptr, ptr, ptr, [2 x ptr], [2 x i32], i32, i32, i32, i32, i32, [2 x [2 x [32 x i32]]], [2 x [2 x i32]], i32, i32, i32, i32, i32, i32, i32, ptr, i32, i32, i32, ptr, i32 }
%struct.ThreadFrame = type { ptr, [2 x ptr], ptr }
%struct.AVFrame = type { [8 x ptr], [8 x i32], ptr, i32, i32, i32, i32, i32, %struct.AVRational, i64, i64, %struct.AVRational, i32, ptr, i32, i32, [8 x ptr], ptr, i32, ptr, i32, i32, i32, i32, i32, i32, i32, i64, ptr, i32, ptr, ptr, i64, i64, i64, i64, ptr, %struct.AVChannelLayout, i64 }
%struct.AVRational = type { i32, i32 }
%struct.AVChannelLayout = type { i32, i32, %union.anon, ptr }
%union.anon = type { i64 }

@.str = private unnamed_addr constant [30 x i8] c"Assertion %s failed at %s:%d\0A\00", align 1
@.str.1 = private unnamed_addr constant [16 x i8] c"!dst->f->buf[0]\00", align 1
@.str.2 = private unnamed_addr constant [26 x i8] c"libavcodec/h264_picture.c\00", align 1
@.str.3 = private unnamed_addr constant [15 x i8] c"src->f->buf[0]\00", align 1
@.str.4 = private unnamed_addr constant [20 x i8] c"src->tf.f == src->f\00", align 1

; Function Attrs: nounwind uwtable
define i32 @ff_h264_ref_picture(ptr noundef %0, ptr noundef %1) #0 {
  %3 = alloca i32, align 4
  %4 = alloca ptr, align 8
  %5 = alloca ptr, align 8
  %6 = alloca i32, align 4
  %7 = alloca i32, align 4
  store ptr %0, ptr %4, align 8, !tbaa !4
  store ptr %1, ptr %5, align 8, !tbaa !4
  call void @llvm.lifetime.start.p0(i64 4, ptr %6) #7
  br label %8

8:                                                ; preds = %2
  %9 = load ptr, ptr %4, align 8, !tbaa !4
  %10 = getelementptr inbounds nuw %struct.H264Picture, ptr %9, i32 0, i32 0
  %11 = load ptr, ptr %10, align 8, !tbaa !11
  %12 = getelementptr inbounds nuw %struct.AVFrame, ptr %11, i32 0, i32 16
  %13 = getelementptr inbounds [8 x ptr], ptr %12, i64 0, i64 0
  %14 = load ptr, ptr %13, align 8, !tbaa !19
  %15 = icmp ne ptr %14, null
  br i1 %15, label %16, label %17

16:                                               ; preds = %8
  call void (ptr, i32, ptr, ...) @av_log(ptr noundef null, i32 noundef 0, ptr noundef @.str, ptr noundef @.str.1, ptr noundef @.str.2, i32 noundef 112)
  call void @abort() #8
  unreachable

17:                                               ; preds = %8
  br label %18

18:                                               ; preds = %17
  br label %19

19:                                               ; preds = %18
  br label %20

20:                                               ; preds = %19
  %21 = load ptr, ptr %5, align 8, !tbaa !4
  %22 = getelementptr inbounds nuw %struct.H264Picture, ptr %21, i32 0, i32 0
  %23 = load ptr, ptr %22, align 8, !tbaa !11
  %24 = getelementptr inbounds nuw %struct.AVFrame, ptr %23, i32 0, i32 16
  %25 = getelementptr inbounds [8 x ptr], ptr %24, i64 0, i64 0
  %26 = load ptr, ptr %25, align 8, !tbaa !19
  %27 = icmp ne ptr %26, null
  br i1 %27, label %29, label %28

28:                                               ; preds = %20
  call void (ptr, i32, ptr, ...) @av_log(ptr noundef null, i32 noundef 0, ptr noundef @.str, ptr noundef @.str.3, ptr noundef @.str.2, i32 noundef 113)
  call void @abort() #8
  unreachable

29:                                               ; preds = %20
  br label %30

30:                                               ; preds = %29
  br label %31

31:                                               ; preds = %30
  br label %32

32:                                               ; preds = %31
  %33 = load ptr, ptr %5, align 8, !tbaa !4
  %34 = getelementptr inbounds nuw %struct.H264Picture, ptr %33, i32 0, i32 1
  %35 = getelementptr inbounds nuw %struct.ThreadFrame, ptr %34, i32 0, i32 0
  %36 = load ptr, ptr %35, align 8, !tbaa !24
  %37 = load ptr, ptr %5, align 8, !tbaa !4
  %38 = getelementptr inbounds nuw %struct.H264Picture, ptr %37, i32 0, i32 0
  %39 = load ptr, ptr %38, align 8, !tbaa !11
  %40 = icmp eq ptr %36, %39
  br i1 %40, label %42, label %41

41:                                               ; preds = %32
  call void (ptr, i32, ptr, ...) @av_log(ptr noundef null, i32 noundef 0, ptr noundef @.str, ptr noundef @.str.4, ptr noundef @.str.2, i32 noundef 114)
  call void @abort() #8
  unreachable

42:                                               ; preds = %32
  br label %43

43:                                               ; preds = %42
  br label %44

44:                                               ; preds = %43
  %45 = load ptr, ptr %4, align 8, !tbaa !4
  %46 = getelementptr inbounds nuw %struct.H264Picture, ptr %45, i32 0, i32 0
  %47 = load ptr, ptr %46, align 8, !tbaa !11
  %48 = load ptr, ptr %4, align 8, !tbaa !4
  %49 = getelementptr inbounds nuw %struct.H264Picture, ptr %48, i32 0, i32 1
  %50 = getelementptr inbounds nuw %struct.ThreadFrame, ptr %49, i32 0, i32 0
  store ptr %47, ptr %50, align 8, !tbaa !24
  %51 = load ptr, ptr %4, align 8, !tbaa !4
  %52 = getelementptr inbounds nuw %struct.H264Picture, ptr %51, i32 0, i32 1
  %53 = load ptr, ptr %5, align 8, !tbaa !4
  %54 = getelementptr inbounds nuw %struct.H264Picture, ptr %53, i32 0, i32 1
  %55 = call i32 @ff_thread_ref_frame(ptr noundef %52, ptr noundef %54)
  store i32 %55, ptr %6, align 4, !tbaa !9
  %56 = load i32, ptr %6, align 4, !tbaa !9
  %57 = icmp slt i32 %56, 0
  br i1 %57, label %58, label %59

58:                                               ; preds = %44
  br label %79

59:                                               ; preds = %44
  %60 = load ptr, ptr %5, align 8, !tbaa !4
  %61 = getelementptr inbounds nuw %struct.H264Picture, ptr %60, i32 0, i32 25
  %62 = load i32, ptr %61, align 4, !tbaa !25
  %63 = icmp ne i32 %62, 0
  br i1 %63, label %64, label %76

64:                                               ; preds = %59
  %65 = load ptr, ptr %4, align 8, !tbaa !4
  %66 = getelementptr inbounds nuw %struct.H264Picture, ptr %65, i32 0, i32 2
  %67 = load ptr, ptr %66, align 8, !tbaa !21
  %68 = load ptr, ptr %5, align 8, !tbaa !4
  %69 = getelementptr inbounds nuw %struct.H264Picture, ptr %68, i32 0, i32 2
  %70 = load ptr, ptr %69, align 8, !tbaa !21
  %71 = call i32 @av_frame_ref(ptr noundef %67, ptr noundef %70)
  store i32 %71, ptr %6, align 4, !tbaa !9
  %72 = load i32, ptr %6, align 4, !tbaa !9
  %73 = icmp slt i32 %72, 0
  br i1 %73, label %74, label %75

74:                                               ; preds = %64
  br label %79

75:                                               ; preds = %64
  br label %76

76:                                               ; preds = %75, %59
  %77 = load ptr, ptr %4, align 8, !tbaa !4
  %78 = load ptr, ptr %5, align 8, !tbaa !4
  call void @h264_copy_picture_params(ptr noundef %77, ptr noundef %78)
  store i32 0, ptr %3, align 4
  store i32 1, ptr %7, align 4
  br label %82

79:                                               ; preds = %74, %58
  %80 = load ptr, ptr %4, align 8, !tbaa !4
  call void @ff_h264_unref_picture(ptr noundef %80)
  %81 = load i32, ptr %6, align 4, !tbaa !9
  store i32 %81, ptr %3, align 4
  store i32 1, ptr %7, align 4
  br label %82

82:                                               ; preds = %79, %76
  call void @llvm.lifetime.end.p0(i64 4, ptr %6) #7
  %83 = load i32, ptr %3, align 4
  ret i32 %83
}