; Function Attrs: nounwind uwtable
define range(i32 -2147483648, 1) i32 @ff_h264_ref_picture(ptr noundef %0, ptr noundef %1) local_unnamed_addr #0 {
  %3 = load ptr, ptr %0, align 8, !tbaa !4
  %4 = getelementptr inbounds nuw i8, ptr %3, i64 184
  %5 = load ptr, ptr %4, align 8, !tbaa !16
  %.not = icmp eq ptr %5, null
  br i1 %.not, label %7, label %6

6:                                                ; preds = %2
  tail call void (ptr, i32, ptr, ...) @av_log(ptr noundef null, i32 noundef 0, ptr noundef nonnull @.str, ptr noundef nonnull @.str.1, ptr noundef nonnull @.str.2, i32 noundef 112) #6
  tail call void @abort() #7
  unreachable

7:                                                ; preds = %2
  %8 = load ptr, ptr %1, align 8, !tbaa !4
  %9 = getelementptr inbounds nuw i8, ptr %8, i64 184
  %10 = load ptr, ptr %9, align 8, !tbaa !16
  %.not20 = icmp eq ptr %10, null
  br i1 %.not20, label %11, label %12

11:                                               ; preds = %7
  tail call void (ptr, i32, ptr, ...) @av_log(ptr noundef null, i32 noundef 0, ptr noundef nonnull @.str, ptr noundef nonnull @.str.3, ptr noundef nonnull @.str.2, i32 noundef 113) #6
  tail call void @abort() #7
  unreachable

12:                                               ; preds = %7
  %13 = getelementptr inbounds nuw i8, ptr %1, i64 8
  %14 = load ptr, ptr %13, align 8, !tbaa !19
  %15 = icmp eq ptr %14, %8
  br i1 %15, label %17, label %16

16:                                               ; preds = %12
  tail call void (ptr, i32, ptr, ...) @av_log(ptr noundef null, i32 noundef 0, ptr noundef nonnull @.str, ptr noundef nonnull @.str.4, ptr noundef nonnull @.str.2, i32 noundef 114) #6
  tail call void @abort() #7
  unreachable

17:                                               ; preds = %12
  %18 = getelementptr inbounds nuw i8, ptr %0, i64 8
  store ptr %3, ptr %18, align 8, !tbaa !19
  %19 = tail call i32 @ff_thread_ref_frame(ptr noundef nonnull %18, ptr noundef nonnull %13) #6
  %20 = icmp slt i32 %19, 0
  br i1 %20, label %32, label %21

21:                                               ; preds = %17
  %22 = getelementptr inbounds nuw i8, ptr %1, i64 716
  %23 = load i32, ptr %22, align 4, !tbaa !20
  %.not21 = icmp eq i32 %23, 0
  br i1 %.not21, label %31, label %24

24:                                               ; preds = %21
  %25 = getelementptr inbounds nuw i8, ptr %0, i64 40
  %26 = load ptr, ptr %25, align 8, !tbaa !18
  %27 = getelementptr inbounds nuw i8, ptr %1, i64 40
  %28 = load ptr, ptr %27, align 8, !tbaa !18
  %29 = tail call i32 @av_frame_ref(ptr noundef %26, ptr noundef %28) #6
  %30 = icmp slt i32 %29, 0
  br i1 %30, label %32, label %31

31:                                               ; preds = %24, %21
  tail call fastcc void @h264_copy_picture_params(ptr noundef nonnull %0, ptr noundef nonnull %1)
  br label %33

32:                                               ; preds = %24, %17
  %.0 = phi i32 [ %19, %17 ], [ %29, %24 ]
  tail call void @ff_h264_unref_picture(ptr noundef nonnull %0)
  br label %33

33:                                               ; preds = %32, %31
  %.017 = phi i32 [ %.0, %32 ], [ 0, %31 ]
  ret i32 %.017
}